target datalayout = "e-m:e-p270:32:32-p271:32:32-p272:64:64-i64:64-i128:128-f80:128-n8:16:32:64-S128"
target triple = "x86_64-unknown-linux-gnu"

%struct.QemuMutex = type { %union.pthread_mutex_t, i8 }
%union.pthread_mutex_t = type { %struct.__pthread_mutex_s }
%struct.__pthread_mutex_s = type { i32, i32, i32, i32, i32, i16, i16, %struct.__pthread_internal_list }
%struct.__pthread_internal_list = type { ptr, ptr }
%struct.CoQueue = type { %struct.anon }
%struct.anon = type { ptr, ptr }
%struct.QemuLockable = type { ptr, ptr, ptr }

@aio_context_list_lock = internal global %struct.QemuMutex zeroinitializer, align 8
@reader_queue = internal global %struct.CoQueue zeroinitializer, align 8
@.str.1 = private unnamed_addr constant [27 x i8] c"../qemu/block/graph-lock.c\00", align 1
@.str.2 = private unnamed_addr constant [22 x i8] c"qemu_in_main_thread()\00", align 1
@has_writer = internal global i32 0, align 4
@__PRETTY_FUNCTION__.bdrv_graph_wrunlock_ctx = private unnamed_addr constant [43 x i8] c"void bdrv_graph_wrunlock_ctx(AioContext *)\00", align 1
@__func__.bdrv_graph_wrunlock_ctx = private unnamed_addr constant [24 x i8] c"bdrv_graph_wrunlock_ctx\00", align 1
@.str.6 = private unnamed_addr constant [26 x i8] c"qatomic_read(&has_writer)\00", align 1

; Function Attrs: nounwind sspstrong uwtable
define internal void @qemu_lockable_unlock(ptr noundef %x) #0 {
entry:
  %x.addr = alloca ptr, align 8
  store ptr %x, ptr %x.addr, align 8
  %0 = load ptr, ptr %x.addr, align 8
  %unlock = getelementptr inbounds %struct.QemuLockable, ptr %0, i32 0, i32 2
  %1 = load ptr, ptr %unlock, align 8
  %2 = load ptr, ptr %x.addr, align 8
  %object = getelementptr inbounds %struct.QemuLockable, ptr %2, i32 0, i32 0
  %3 = load ptr, ptr %object, align 8
  call void %1(ptr noundef %3)
  ret void
}

; Function Attrs: nounwind sspstrong uwtable
define internal void @glib_autoptr_clear_QemuLockable(ptr noundef %_ptr) #0 {
entry:
  %_ptr.addr = alloca ptr, align 8
  store ptr %_ptr, ptr %_ptr.addr, align 8
  %0 = load ptr, ptr %_ptr.addr, align 8
  %tobool = icmp ne ptr %0, null
  br i1 %tobool, label %if.then, label %if.end

if.then:                                          ; preds = %entry
  %1 = load ptr, ptr %_ptr.addr, align 8
  call void @qemu_lockable_auto_unlock(ptr noundef %1)
  br label %if.end

if.end:                                           ; preds = %if.then, %entry
  ret void
}

; Function Attrs: nounwind sspstrong uwtable
define internal void @qemu_lockable_lock(ptr noundef %x) #0 {
entry:
  %x.addr = alloca ptr, align 8
  store ptr %x, ptr %x.addr, align 8
  %0 = load ptr, ptr %x.addr, align 8
  %lock = getelementptr inbounds %struct.QemuLockable, ptr %0, i32 0, i32 1
  %1 = load ptr, ptr %lock, align 8
  %2 = load ptr, ptr %x.addr, align 8
  %object = getelementptr inbounds %struct.QemuLockable, ptr %2, i32 0, i32 0
  %3 = load ptr, ptr %object, align 8
  call void %1(ptr noundef %3)
  ret void
}

; Function Attrs: nounwind sspstrong uwtable
define internal void @qemu_lockable_auto_unlock(ptr noundef %x) #0 {
entry:
  %x.addr = alloca ptr, align 8
  store ptr %x, ptr %x.addr, align 8
  %0 = load ptr, ptr %x.addr, align 8
  %tobool = icmp ne ptr %0, null
  br i1 %tobool, label %if.then, label %if.end

if.then:                                          ; preds = %entry
  %1 = load ptr, ptr %x.addr, align 8
  call void @qemu_lockable_unlock(ptr noundef %1)
  br label %if.end

if.end:                                           ; preds = %if.then, %entry
  ret void
}

; Function Attrs: nounwind sspstrong uwtable
define internal void @glib_autoptr_cleanup_QemuLockable(ptr noundef %_ptr) #0 {
entry:
  %_ptr.addr = alloca ptr, align 8
  store ptr %_ptr, ptr %_ptr.addr, align 8
  %0 = load ptr, ptr %_ptr.addr, align 8
  %1 = load ptr, ptr %0, align 8
  call void @glib_autoptr_clear_QemuLockable(ptr noundef %1)
  ret void
}

; Function Attrs: nounwind sspstrong uwtable
define internal ptr @qemu_lockable_auto_lock(ptr noundef %x) #0 {
entry:
  %x.addr = alloca ptr, align 8
  store ptr %x, ptr %x.addr, align 8
  %0 = load ptr, ptr %x.addr, align 8
  call void @qemu_lockable_lock(ptr noundef %0)
  %1 = load ptr, ptr %x.addr, align 8
  ret ptr %1
}

; Function Attrs: nounwind sspstrong uwtable
define dso_local void @bdrv_graph_wrunlock_ctx(ptr noundef %ctx) #0 {
entry:
  %x.addr.i = alloca ptr, align 8
  %lockable.addr.i = alloca ptr, align 8
  %ctx.addr = alloca ptr, align 8
  %tmp = alloca i32, align 4
  %atomic-temp = alloca i32, align 4
  %qemu_lockable_auto7 = alloca ptr, align 8
  %.compoundliteral = alloca %struct.QemuLockable, align 8
  %.atomictmp = alloca i32, align 4
  %.compoundliteral21 = alloca %struct.QemuLockable, align 8
  store ptr %ctx, ptr %ctx.addr, align 8
  br label %do.body

do.body:                                          ; preds = %entry
  %call = call zeroext i1 @qemu_in_main_thread()
  br i1 %call, label %if.then, label %if.else

if.then:                                          ; preds = %do.body
  br label %if.end

if.else:                                          ; preds = %do.body
  call void @__assert_fail(ptr noundef @.str.2, ptr noundef @.str.1, i32 noundef 166, ptr noundef @__PRETTY_FUNCTION__.bdrv_graph_wrunlock_ctx) #6
  unreachable

if.end:                                           ; preds = %if.then
  br label %do.end

do.end:                                           ; preds = %if.end
  br label %while.cond

while.cond:                                       ; preds = %do.end2, %do.end
  br i1 false, label %while.body, label %while.end

while.body:                                       ; preds = %while.cond
  br label %do.body1

do.body1:                                         ; preds = %while.body
  call void @g_assertion_message_expr(ptr noundef null, ptr noundef @.str.1, i32 noundef 167, ptr noundef @__func__.bdrv_graph_wrunlock_ctx, ptr noundef null) #7
  unreachable

do.end2:                                          ; No predecessors!
  br label %while.cond

while.end:                                        ; preds = %while.cond
  %0 = load atomic i32, ptr @has_writer monotonic, align 4
  store i32 %0, ptr %atomic-temp, align 4
  %1 = load i32, ptr %atomic-temp, align 4
  store i32 %1, ptr %tmp, align 4
  %2 = load i32, ptr %tmp, align 4
  %tobool = icmp ne i32 %2, 0
  br i1 %tobool, label %if.then3, label %if.else4

if.then3:                                         ; preds = %while.end
  br label %if.end5

if.else4:                                         ; preds = %while.end
  call void @__assert_fail(ptr noundef @.str.6, ptr noundef @.str.1, i32 noundef 167, ptr noundef @__PRETTY_FUNCTION__.bdrv_graph_wrunlock_ctx) #6
  unreachable

if.end5:                                          ; preds = %if.then3
  %3 = load ptr, ptr %ctx.addr, align 8
  %tobool6 = icmp ne ptr %3, null
  br i1 %tobool6, label %land.lhs.true, label %if.else9

land.lhs.true:                                    ; preds = %if.end5
  %4 = load ptr, ptr %ctx.addr, align 8
  %call7 = call ptr @qemu_get_aio_context()
  %cmp = icmp ne ptr %4, %call7
  br i1 %cmp, label %if.then8, label %if.else9

if.then8:                                         ; preds = %land.lhs.true
  %5 = load ptr, ptr %ctx.addr, align 8
  call void @aio_context_release(ptr noundef %5)
  br label %if.end10

if.else9:                                         ; preds = %land.lhs.true, %if.end5
  store ptr null, ptr %ctx.addr, align 8
  br label %if.end10

if.end10:                                         ; preds = %if.else9, %if.then8
  %object = getelementptr inbounds %struct.QemuLockable, ptr %.compoundliteral, i32 0, i32 0
  store ptr @aio_context_list_lock, ptr %object, align 8
  %lock = getelementptr inbounds %struct.QemuLockable, ptr %.compoundliteral, i32 0, i32 1
  store ptr @qemu_mutex_lock, ptr %lock, align 8
  %unlock = getelementptr inbounds %struct.QemuLockable, ptr %.compoundliteral, i32 0, i32 2
  store ptr @qemu_mutex_unlock, ptr %unlock, align 8
  %call11 = call ptr @qemu_lockable_auto_lock(ptr noundef %.compoundliteral)
  store ptr %call11, ptr %qemu_lockable_auto7, align 8
  br label %for.cond

for.cond:                                         ; preds = %for.inc, %if.end10
  %6 = load ptr, ptr %qemu_lockable_auto7, align 8
  %tobool12 = icmp ne ptr %6, null
  br i1 %tobool12, label %for.body, label %for.cond.cleanup

for.cond.cleanup:                                 ; preds = %for.cond
  call void @glib_autoptr_cleanup_QemuLockable(ptr noundef %qemu_lockable_auto7)
  br label %for.end

for.body:                                         ; preds = %for.cond
  br label %do.body13

do.body13:                                        ; preds = %for.body
  br label %while.cond14

while.cond14:                                     ; preds = %do.end17, %do.body13
  br i1 false, label %while.body15, label %while.end18

while.body15:                                     ; preds = %while.cond14
  br label %do.body16

do.body16:                                        ; preds = %while.body15
  call void @g_assertion_message_expr(ptr noundef null, ptr noundef @.str.1, i32 noundef 184, ptr noundef @__func__.bdrv_graph_wrunlock_ctx, ptr noundef null) #7
  unreachable

do.cond:                                          ; No predecessors!
  br label %do.end17

do.end17:                                         ; preds = %do.cond
  br label %while.cond14

while.end18:                                      ; preds = %while.cond14
  store i32 0, ptr %.atomictmp, align 4
  %7 = load i32, ptr %.atomictmp, align 4
  store atomic i32 %7, ptr @has_writer release, align 4
  br label %do.cond19

do.cond19:                                        ; preds = %while.end18
  br label %do.end20

do.end20:                                         ; preds = %do.cond19
  %object22 = getelementptr inbounds %struct.QemuLockable, ptr %.compoundliteral21, i32 0, i32 0
  store ptr @aio_context_list_lock, ptr %object22, align 8
  %lock23 = getelementptr inbounds %struct.QemuLockable, ptr %.compoundliteral21, i32 0, i32 1
  store ptr @qemu_mutex_lock, ptr %lock23, align 8
  %unlock24 = getelementptr inbounds %struct.QemuLockable, ptr %.compoundliteral21, i32 0, i32 2
  store ptr @qemu_mutex_unlock, ptr %unlock24, align 8
  store ptr @aio_context_list_lock, ptr %x.addr.i, align 8
  store ptr %.compoundliteral21, ptr %lockable.addr.i, align 8
  %8 = load ptr, ptr %x.addr.i, align 8
  %tobool.i = icmp ne ptr %8, null
  br i1 %tobool.i, label %cond.true.i, label %cond.false.i

cond.true.i:                                      ; preds = %do.end20
  %9 = load ptr, ptr %lockable.addr.i, align 8
  br label %qemu_make_lockable.exit

cond.false.i:                                     ; preds = %do.end20
  br label %qemu_make_lockable.exit

qemu_make_lockable.exit:                          ; preds = %cond.false.i, %cond.true.i
  %cond.i = phi ptr [ %9, %cond.true.i ], [ null, %cond.false.i ]
  call void @qemu_co_enter_all_impl(ptr noundef @reader_queue, ptr noundef %cond.i)
  br label %for.inc

for.inc:                                          ; preds = %qemu_make_lockable.exit
  %10 = load ptr, ptr %qemu_lockable_auto7, align 8
  call void @qemu_lockable_auto_unlock(ptr noundef %10)
  store ptr null, ptr %qemu_lockable_auto7, align 8
  br label %for.cond, !llvm.loop !11

for.end:                                          ; preds = %for.cond.cleanup
  %call26 = call ptr @qemu_get_aio_context()
  %call27 = call i32 @aio_bh_poll(ptr noundef %call26)
  %11 = load ptr, ptr %ctx.addr, align 8
  %tobool28 = icmp ne ptr %11, null
  br i1 %tobool28, label %if.then29, label %if.end30

if.then29:                                        ; preds = %for.end
  %12 = load ptr, ptr %ctx.addr, align 8
  call void @aio_context_acquire(ptr noundef %12)
  br label %if.end30

if.end30:                                         ; preds = %if.then29, %for.end
  ret void
}