; Function Attrs: nounwind sspstrong uwtable
define dso_local void @bdrv_graph_wrunlock_ctx(ptr noundef %ctx) #0 {
entry:
  %.compoundliteral21 = alloca %struct.QemuLockable, align 8
  %call = tail call zeroext i1 @qemu_in_main_thread() #5
  br i1 %call, label %while.end, label %if.else

if.else:                                          ; preds = %entry
  tail call void @__assert_fail(ptr noundef nonnull @.str.2, ptr noundef nonnull @.str.1, i32 noundef 166, ptr noundef nonnull @__PRETTY_FUNCTION__.bdrv_graph_wrunlock_ctx) #7
  unreachable

while.end:                                        ; preds = %entry
  %0 = load atomic i32, ptr @has_writer monotonic, align 4
  %tobool.not = icmp eq i32 %0, 0
  br i1 %tobool.not, label %if.else4, label %if.end5

if.else4:                                         ; preds = %while.end
  tail call void @__assert_fail(ptr noundef nonnull @.str.6, ptr noundef nonnull @.str.1, i32 noundef 167, ptr noundef nonnull @__PRETTY_FUNCTION__.bdrv_graph_wrunlock_ctx) #7
  unreachable

if.end5:                                          ; preds = %while.end
  %tobool6.not = icmp eq ptr %ctx, null
  br i1 %tobool6.not, label %qemu_lockable_auto_unlock.exit.us, label %land.lhs.true

land.lhs.true:                                    ; preds = %if.end5
  %call7 = tail call ptr @qemu_get_aio_context() #5
  %cmp.not = icmp eq ptr %ctx, %call7
  br i1 %cmp.not, label %qemu_lockable_auto_unlock.exit.us, label %if.then8

if.then8:                                         ; preds = %land.lhs.true
  tail call void @aio_context_release(ptr noundef nonnull %ctx) #5
  br label %qemu_lockable_auto_unlock.exit.us

qemu_lockable_auto_unlock.exit.us:                ; preds = %if.then8, %land.lhs.true, %if.end5
  %ctx.addr.0 = phi ptr [ %ctx, %if.then8 ], [ null, %land.lhs.true ], [ null, %if.end5 ]
  %1 = load atomic i64, ptr @qemu_mutex_lock_func monotonic, align 8
  %2 = inttoptr i64 %1 to ptr
  tail call void %2(ptr noundef nonnull @aio_context_list_lock, ptr noundef nonnull @.str.7, i32 noundef 122) #5
  %unlock24 = getelementptr inbounds nuw i8, ptr %.compoundliteral21, i64 16
  %lock23 = getelementptr inbounds nuw i8, ptr %.compoundliteral21, i64 8
  store atomic i32 0, ptr @has_writer release, align 4
  store ptr @aio_context_list_lock, ptr %.compoundliteral21, align 8
  store ptr @qemu_mutex_lock, ptr %lock23, align 8
  store ptr @qemu_mutex_unlock, ptr %unlock24, align 8
  call void @qemu_co_enter_all_impl(ptr noundef nonnull @reader_queue, ptr noundef nonnull %.compoundliteral21) #5
  call void @qemu_mutex_unlock_impl(ptr noundef nonnull @aio_context_list_lock, ptr noundef nonnull @.str.7, i32 noundef 132) #5
  %call26 = call ptr @qemu_get_aio_context() #5
  %call27 = call i32 @aio_bh_poll(ptr noundef %call26) #5
  %tobool28.not = icmp eq ptr %ctx.addr.0, null
  br i1 %tobool28.not, label %if.end30, label %if.then29

if.then29:                                        ; preds = %qemu_lockable_auto_unlock.exit.us
  call void @aio_context_acquire(ptr noundef nonnull %ctx.addr.0) #5
  br label %if.end30

if.end30:                                         ; preds = %if.then29, %qemu_lockable_auto_unlock.exit.us
  ret void
}